target datalayout = "e-m:e-p270:32:32-p271:32:32-p272:64:64-i64:64-i128:128-f80:128-n8:16:32:64-S128"
target triple = "x86_64-pc-linux-gnu"

%struct.Parser = type { ptr, ptr, i32, i32, i32, ptr, ptr, ptr, i32, i32, ptr, i32, ptr, i32, i32, i32, i32, i32, %struct.growable_comment_array, ptr, i32, i32, i32 }
%struct.growable_comment_array = type { ptr, i64, i64 }

; Function Attrs: nounwind uwtable
define hidden i32 @_PyPegen_lookahead_with_int(i32 noundef %0, ptr noundef %1, ptr noundef %2, i32 noundef %3) #0 {
  %5 = alloca i32, align 4
  %6 = alloca ptr, align 8
  %7 = alloca ptr, align 8
  %8 = alloca i32, align 4
  %9 = alloca i32, align 4
  %10 = alloca ptr, align 8
  store i32 %0, ptr %5, align 4, !tbaa !18
  store ptr %1, ptr %6, align 8, !tbaa !4
  store ptr %2, ptr %7, align 8, !tbaa !4
  store i32 %3, ptr %8, align 4, !tbaa !18
  call void @llvm.lifetime.start.p0(i64 4, ptr %9) #10
  %11 = load ptr, ptr %7, align 8, !tbaa !4
  %12 = getelementptr inbounds nuw %struct.Parser, ptr %11, i32 0, i32 2
  %13 = load i32, ptr %12, align 8, !tbaa !38
  store i32 %13, ptr %9, align 4, !tbaa !18
  call void @llvm.lifetime.start.p0(i64 8, ptr %10) #10
  %14 = load ptr, ptr %6, align 8, !tbaa !4
  %15 = load ptr, ptr %7, align 8, !tbaa !4
  %16 = load i32, ptr %8, align 4, !tbaa !18
  %17 = call ptr %14(ptr noundef %15, i32 noundef %16)
  store ptr %17, ptr %10, align 8, !tbaa !4
  %18 = load i32, ptr %9, align 4, !tbaa !18
  %19 = load ptr, ptr %7, align 8, !tbaa !4
  %20 = getelementptr inbounds nuw %struct.Parser, ptr %19, i32 0, i32 2
  store i32 %18, ptr %20, align 8, !tbaa !38
  %21 = load ptr, ptr %10, align 8, !tbaa !4
  %22 = icmp ne ptr %21, null
  %23 = zext i1 %22 to i32
  %24 = load i32, ptr %5, align 4, !tbaa !18
  %25 = icmp eq i32 %23, %24
  %26 = zext i1 %25 to i32
  call void @llvm.lifetime.end.p0(i64 8, ptr %10) #10
  call void @llvm.lifetime.end.p0(i64 4, ptr %9) #10
  ret i32 %26
}